target datalayout = "e-m:e-p270:32:32-p271:32:32-p272:64:64-i64:64-i128:128-f80:128-n8:16:32:64-S128"
target triple = "x86_64-pc-linux-gnu"

@.str.2 = private unnamed_addr constant [18 x i8] c"execReplication.c\00", align 1
@.str.10 = private unnamed_addr constant [58 x i8] c"cannot use relation \22%s.%s\22 as logical replication target\00", align 1
@__func__.CheckSubscriptionRelkind = private unnamed_addr constant [25 x i8] c"CheckSubscriptionRelkind\00", align 1

; Function Attrs: nounwind uwtable
define dso_local void @CheckSubscriptionRelkind(i8 noundef signext %0, ptr noundef %1, ptr noundef %2) #0 {
  %4 = alloca i8, align 1
  %5 = alloca ptr, align 8
  %6 = alloca ptr, align 8
  store i8 %0, ptr %4, align 1
  store ptr %1, ptr %5, align 8
  store ptr %2, ptr %6, align 8
  %7 = load i8, ptr %4, align 1
  %8 = sext i8 %7 to i32
  %9 = icmp ne i32 %8, 114
  br i1 %9, label %10, label %29

10:                                               ; preds = %3
  %11 = load i8, ptr %4, align 1
  %12 = sext i8 %11 to i32
  %13 = icmp ne i32 %12, 112
  br i1 %13, label %14, label %29

14:                                               ; preds = %10
  br label %15

15:                                               ; preds = %14
  br i1 true, label %16, label %18

16:                                               ; preds = %15
  %17 = call zeroext i1 @errstart_cold(i32 noundef 21, ptr noundef null) #8
  br i1 %17, label %20, label %27

18:                                               ; preds = %15
  %19 = call zeroext i1 @errstart(i32 noundef 21, ptr noundef null)
  br i1 %19, label %20, label %27

20:                                               ; preds = %18, %16
  %21 = call i32 @errcode(i32 noundef 151027844)
  %22 = load ptr, ptr %5, align 8
  %23 = load ptr, ptr %6, align 8
  %24 = call i32 (ptr, ...) @errmsg(ptr noundef @.str.10, ptr noundef %22, ptr noundef %23)
  %25 = load i8, ptr %4, align 1
  %26 = call i32 @errdetail_relkind_not_supported(i8 noundef signext %25)
  call void @errfinish(ptr noundef @.str.2, i32 noundef 847, ptr noundef @__func__.CheckSubscriptionRelkind)
  br label %27

27:                                               ; preds = %20, %18, %16
  unreachable

28:                                               ; No predecessors!
  br label %29

29:                                               ; preds = %28, %10, %3
  ret void
}