; Function Attrs: nounwind uwtable
define dso_local void @CheckSubscriptionRelkind(i8 noundef signext %0, ptr noundef %1, ptr noundef %2) local_unnamed_addr #0 {
  %4 = and i8 %0, -3
  %or.cond.not = icmp eq i8 %4, 112
  br i1 %or.cond.not, label %10, label %5

5:                                                ; preds = %3
  %6 = tail call zeroext i1 @errstart_cold(i32 noundef 21, ptr noundef null) #6
  tail call void @llvm.assume(i1 %6)
  %7 = tail call i32 @errcode(i32 noundef 151027844) #5
  %8 = tail call i32 (ptr, ...) @errmsg(ptr noundef nonnull @.str.10, ptr noundef %1, ptr noundef %2) #5
  %9 = tail call i32 @errdetail_relkind_not_supported(i8 noundef signext %0) #5
  tail call void @errfinish(ptr noundef nonnull @.str.2, i32 noundef 847, ptr noundef nonnull @__func__.CheckSubscriptionRelkind) #5
  unreachable

10:                                               ; preds = %3
  ret void
}